; ModuleID = '11/767.c'
source_filename = "11/767.c"
target datalayout = "e-m:e-p270:32:32-p271:32:32-p272:64:64-i64:64-f80:128-n8:16:32:64-S128"
target triple = "x86_64-pc-linux-gnu"

@.str = private unnamed_addr constant [9 x i8] c"%d %d %d\00", align 1
@.str.1 = private unnamed_addr constant [3 x i8] c"%d\00", align 1

; Function Attrs: noinline nounwind uwtable
define dso_local i32 @r(i32 %0) #0 {
  %2 = alloca i32, align 4
  %3 = alloca i32, align 4
  store i32 %0, i32* %3, align 4
  %4 = load i32, i32* %3, align 4
  %5 = srem i32 %4, 4
  %6 = icmp ne i32 %5, 0
  br i1 %6, label %15, label %7

7:                                                ; preds = %1
  %8 = load i32, i32* %3, align 4
  %9 = srem i32 %8, 100
  %10 = icmp eq i32 %9, 0
  br i1 %10, label %11, label %16

11:                                               ; preds = %7
  %12 = load i32, i32* %3, align 4
  %13 = srem i32 %12, 400
  %14 = icmp ne i32 %13, 0
  br i1 %14, label %15, label %16

15:                                               ; preds = %11, %1
  store i32 0, i32* %2, align 4
  br label %17

16:                                               ; preds = %11, %7
  store i32 1, i32* %2, align 4
  br label %17

17:                                               ; preds = %16, %15
  %18 = load i32, i32* %2, align 4
  ret i32 %18
}

; Function Attrs: noinline nounwind uwtable
define dso_local i32 @main() #0 {
  %1 = alloca i32, align 4
  %2 = alloca i32, align 4
  %3 = alloca i32, align 4
  %4 = alloca i32, align 4
  %5 = alloca i32, align 4
  %6 = alloca i32, align 4
  %7 = alloca i32, align 4
  %8 = alloca i32, align 4
  %9 = alloca [13 x i32], align 16
  store i32 0, i32* %1, align 4
  %10 = call i32 (i8*, ...) @__isoc99_scanf(i8* getelementptr inbounds ([9 x i8], [9 x i8]* @.str, i64 0, i64 0), i32* %2, i32* %3, i32* %6)
  %11 = getelementptr inbounds [13 x i32], [13 x i32]* %9, i64 0, i64 1
  store i32 31, i32* %11, align 4
  %12 = getelementptr inbounds [13 x i32], [13 x i32]* %9, i64 0, i64 3
  store i32 31, i32* %12, align 4
  %13 = getelementptr inbounds [13 x i32], [13 x i32]* %9, i64 0, i64 4
  store i32 30, i32* %13, align 16
  %14 = getelementptr inbounds [13 x i32], [13 x i32]* %9, i64 0, i64 5
  store i32 31, i32* %14, align 4
  %15 = getelementptr inbounds [13 x i32], [13 x i32]* %9, i64 0, i64 6
  store i32 30, i32* %15, align 8
  %16 = getelementptr inbounds [13 x i32], [13 x i32]* %9, i64 0, i64 7
  store i32 31, i32* %16, align 4
  %17 = getelementptr inbounds [13 x i32], [13 x i32]* %9, i64 0, i64 8
  store i32 31, i32* %17, align 16
  %18 = getelementptr inbounds [13 x i32], [13 x i32]* %9, i64 0, i64 9
  store i32 30, i32* %18, align 4
  %19 = getelementptr inbounds [13 x i32], [13 x i32]* %9, i64 0, i64 10
  store i32 31, i32* %19, align 8
  %20 = getelementptr inbounds [13 x i32], [13 x i32]* %9, i64 0, i64 11
  store i32 30, i32* %20, align 4
  %21 = getelementptr inbounds [13 x i32], [13 x i32]* %9, i64 0, i64 12
  store i32 31, i32* %21, align 16
  %22 = load i32, i32* %2, align 4
  %23 = call i32 @r(i32 %22)
  %24 = icmp eq i32 %23, 1
  br i1 %24, label %25, label %27

25:                                               ; preds = %0
  %26 = getelementptr inbounds [13 x i32], [13 x i32]* %9, i64 0, i64 2
  store i32 29, i32* %26, align 8
  br label %29

27:                                               ; preds = %0
  %28 = getelementptr inbounds [13 x i32], [13 x i32]* %9, i64 0, i64 2
  store i32 28, i32* %28, align 8
  br label %29

29:                                               ; preds = %27, %25
  store i32 0, i32* %7, align 4
  store i32 1, i32* %4, align 4
  br label %30

30:                                               ; preds = %41, %29
  %31 = load i32, i32* %4, align 4
  %32 = load i32, i32* %3, align 4
  %33 = icmp slt i32 %31, %32
  br i1 %33, label %34, label %44

34:                                               ; preds = %30
  %35 = load i32, i32* %7, align 4
  %36 = load i32, i32* %4, align 4
  %37 = sext i32 %36 to i64
  %38 = getelementptr inbounds [13 x i32], [13 x i32]* %9, i64 0, i64 %37
  %39 = load i32, i32* %38, align 4
  %40 = add nsw i32 %35, %39
  store i32 %40, i32* %7, align 4
  br label %41

41:                                               ; preds = %34
  %42 = load i32, i32* %4, align 4
  %43 = add nsw i32 %42, 1
  store i32 %43, i32* %4, align 4
  br label %30

44:                                               ; preds = %30
  %45 = load i32, i32* %7, align 4
  %46 = load i32, i32* %6, align 4
  %47 = add nsw i32 %45, %46
  store i32 %47, i32* %7, align 4
  %48 = load i32, i32* %7, align 4
  %49 = call i32 (i8*, ...) @printf(i8* getelementptr inbounds ([3 x i8], [3 x i8]* @.str.1, i64 0, i64 0), i32 %48)
  %50 = call i32 @getchar()
  %51 = call i32 @getchar()
  %52 = call i32 @getchar()
  %53 = call i32 @getchar()
  %54 = load i32, i32* %1, align 4
  ret i32 %54
}

declare dso_local i32 @__isoc99_scanf(i8*, ...) #1

declare dso_local i32 @printf(i8*, ...) #1

declare dso_local i32 @getchar() #1


!llvm.module.flags = !{!0}
!llvm.ident = !{!1}

!0 = !{i32 1, !"wchar_size", i32 4}
!1 = !{!"clang version 10.0.0-4ubuntu1 "}
